; Function Attrs: mustprogress uwtable
define hidden noundef i32 @_Z9parse_optPKc10opt_format(ptr noundef %0, i32 noundef %1) local_unnamed_addr #6 personality ptr @__gxx_personality_v0 {
  %3 = alloca %"class.std::basic_ifstream", align 8
  store i1 false, ptr @_ZL17g_first_interrupt, align 1
  %4 = tail call i64 @clock() #23
  %5 = sitofp i64 %4 to double
  store double %5, ptr @_ZL12g_start_time, align 8, !tbaa !10
  tail call void @_Z24register_on_timeout_procPFvvE(ptr noundef nonnull @_ZL10on_timeoutv)
  %6 = tail call ptr @signal(i32 noundef 2, ptr noundef nonnull @_ZL9on_ctrl_ci) #23
  %.not = icmp eq ptr %0, null
  br i1 %.not, label %25, label %7

7:                                                ; preds = %2
  call void @llvm.lifetime.start.p0(i64 520, ptr nonnull %3) #23
  call void @_ZNSt14basic_ifstreamIcSt11char_traitsIcEEC1EPKcSt13_Ios_Openmode(ptr noundef nonnull align 8 dereferenceable(256) %3, ptr noundef nonnull %0, i32 noundef 8)
  %8 = load ptr, ptr %3, align 8, !tbaa !12
  %9 = getelementptr i8, ptr %8, i64 -24
  %10 = load i64, ptr %9, align 8
  %11 = getelementptr inbounds i8, ptr %3, i64 %10
  %12 = getelementptr inbounds nuw i8, ptr %11, i64 32
  %13 = load i32, ptr %12, align 8, !tbaa !14
  %14 = and i32 %13, 5
  %or.cond.not = icmp eq i32 %14, 0
  br i1 %or.cond.not, label %23, label %15

15:                                               ; preds = %7
  %16 = invoke noundef nonnull align 8 dereferenceable(8) ptr @_ZSt16__ostream_insertIcSt11char_traitsIcEERSt13basic_ostreamIT_T0_ES6_PKS3_l(ptr noundef nonnull align 8 dereferenceable(8) @_ZSt4cerr, ptr noundef nonnull @.str, i64 noundef 29)
          to label %_ZStlsISt11char_traitsIcEERSt13basic_ostreamIcT_ES5_PKc.exit unwind label %21

_ZStlsISt11char_traitsIcEERSt13basic_ostreamIcT_ES5_PKc.exit: ; preds = %15
  %17 = call noundef i64 @strlen(ptr noundef nonnull dereferenceable(1) %0) #23
  %18 = invoke noundef nonnull align 8 dereferenceable(8) ptr @_ZSt16__ostream_insertIcSt11char_traitsIcEERSt13basic_ostreamIT_T0_ES6_PKS3_l(ptr noundef nonnull align 8 dereferenceable(8) @_ZSt4cerr, ptr noundef nonnull %0, i64 noundef %17)
          to label %_ZStlsISt11char_traitsIcEERSt13basic_ostreamIcT_ES5_PKc.exit9 unwind label %21

_ZStlsISt11char_traitsIcEERSt13basic_ostreamIcT_ES5_PKc.exit9: ; preds = %_ZStlsISt11char_traitsIcEERSt13basic_ostreamIcT_ES5_PKc.exit
  %19 = invoke noundef nonnull align 8 dereferenceable(8) ptr @_ZSt16__ostream_insertIcSt11char_traitsIcEERSt13basic_ostreamIT_T0_ES6_PKS3_l(ptr noundef nonnull align 8 dereferenceable(8) @_ZSt4cerr, ptr noundef nonnull @.str.7, i64 noundef 3)
          to label %_ZStlsISt11char_traitsIcEERSt13basic_ostreamIcT_ES5_PKc.exit11 unwind label %21

_ZStlsISt11char_traitsIcEERSt13basic_ostreamIcT_ES5_PKc.exit11: ; preds = %_ZStlsISt11char_traitsIcEERSt13basic_ostreamIcT_ES5_PKc.exit9
  %20 = invoke noundef nonnull align 8 dereferenceable(8) ptr @_ZSt4endlIcSt11char_traitsIcEERSt13basic_ostreamIT_T0_ES6_(ptr noundef nonnull align 8 dereferenceable(8) @_ZSt4cerr)
          to label %_ZNSolsEPFRSoS_E.exit unwind label %21

_ZNSolsEPFRSoS_E.exit:                            ; preds = %_ZStlsISt11char_traitsIcEERSt13basic_ostreamIcT_ES5_PKc.exit11
  call void @exit(i32 noundef 108) #24
  unreachable

21:                                               ; preds = %23, %_ZStlsISt11char_traitsIcEERSt13basic_ostreamIcT_ES5_PKc.exit11, %_ZStlsISt11char_traitsIcEERSt13basic_ostreamIcT_ES5_PKc.exit9, %_ZStlsISt11char_traitsIcEERSt13basic_ostreamIcT_ES5_PKc.exit, %15
  %22 = landingpad { ptr, i32 }
          cleanup
  call void @_ZNSt14basic_ifstreamIcSt11char_traitsIcEED1Ev(ptr noundef nonnull align 8 dereferenceable(256) %3) #23
  call void @llvm.lifetime.end.p0(i64 520, ptr nonnull %3) #23
  resume { ptr, i32 } %22

23:                                               ; preds = %7
  invoke fastcc void @_ZL9parse_optRSi10opt_format(ptr noundef nonnull align 8 dereferenceable(16) %3, i32 noundef %1)
          to label %24 unwind label %21

24:                                               ; preds = %23
  call void @_ZNSt14basic_ifstreamIcSt11char_traitsIcEED1Ev(ptr noundef nonnull align 8 dereferenceable(256) %3) #23
  call void @llvm.lifetime.end.p0(i64 520, ptr nonnull %3) #23
  br label %26

25:                                               ; preds = %2
  tail call fastcc void @_ZL9parse_optRSi10opt_format(ptr noundef nonnull align 8 dereferenceable(16) @_ZSt3cin, i32 noundef %1)
  br label %26

26:                                               ; preds = %25, %24
  ret i32 0
}